; Function Attrs: nofree norecurse nosync nounwind memory(readwrite, inaccessiblemem: none) uwtable
define i32 @ff_vvc_sao_offset_abs_decode(ptr noundef readonly captures(none) %0) local_unnamed_addr #3 {
  %2 = getelementptr inbounds nuw i8, ptr %0, i64 4580552
  %3 = load ptr, ptr %2, align 8, !tbaa !4
  %4 = getelementptr inbounds nuw i8, ptr %3, i64 1928
  %5 = load ptr, ptr %4, align 8, !tbaa !72
  %6 = getelementptr inbounds nuw i8, ptr %5, i64 28
  %7 = load i8, ptr %6, align 4, !tbaa !81
  %8 = icmp ugt i8 %7, 10
  %9 = zext nneg i8 %7 to i32
  %10 = add nsw i32 %9, -5
  %11 = shl nsw i32 -1, %10
  %12 = xor i32 %11, -1
  %13 = select i1 %8, i32 31, i32 %12
  %.not = icmp eq i32 %13, 0
  br i1 %.not, label %.critedge, label %.lr.ph

.lr.ph:                                           ; preds = %1
  %14 = getelementptr inbounds nuw i8, ptr %0, i64 4580560
  %15 = load ptr, ptr %14, align 16, !tbaa !67
  %16 = getelementptr inbounds nuw i8, ptr %15, i64 2672
  %17 = getelementptr inbounds nuw i8, ptr %15, i64 2688
  %18 = getelementptr inbounds nuw i8, ptr %15, i64 2696
  %19 = getelementptr inbounds nuw i8, ptr %15, i64 2676
  %20 = load i32, ptr %19, align 4, !tbaa !100
  %21 = shl i32 %20, 17
  %.promoted = load i32, ptr %16, align 8, !tbaa !70
  br label %22

22:                                               ; preds = %.lr.ph, %44
  %23 = phi i32 [ %.promoted, %.lr.ph ], [ %45, %44 ]
  %.09 = phi i32 [ 0, %.lr.ph ], [ %46, %44 ]
  %24 = shl nsw i32 %23, 1
  store i32 %24, ptr %16, align 8, !tbaa !70
  %25 = and i32 %23, 32767
  %.not.i = icmp eq i32 %25, 0
  br i1 %.not.i, label %26, label %refill.exit.i

26:                                               ; preds = %22
  %27 = load ptr, ptr %17, align 8, !tbaa !68
  %28 = load i8, ptr %27, align 1, !tbaa !97
  %29 = zext i8 %28 to i32
  %30 = shl nuw nsw i32 %29, 9
  %31 = getelementptr inbounds nuw i8, ptr %27, i64 1
  %32 = load i8, ptr %31, align 1, !tbaa !97
  %33 = zext i8 %32 to i32
  %34 = shl nuw nsw i32 %33, 1
  %35 = or disjoint i32 %34, %30
  %36 = add i32 %24, -65535
  %37 = add i32 %36, %35
  store i32 %37, ptr %16, align 8, !tbaa !70
  %38 = load ptr, ptr %18, align 8, !tbaa !71
  %39 = icmp ult ptr %27, %38
  br i1 %39, label %40, label %refill.exit.i

40:                                               ; preds = %26
  %41 = getelementptr inbounds nuw i8, ptr %27, i64 2
  store ptr %41, ptr %17, align 8, !tbaa !68
  br label %refill.exit.i

refill.exit.i:                                    ; preds = %40, %26, %22
  %42 = phi i32 [ %37, %40 ], [ %37, %26 ], [ %24, %22 ]
  %43 = icmp slt i32 %42, %21
  br i1 %43, label %.critedge, label %44

44:                                               ; preds = %refill.exit.i
  %45 = sub nsw i32 %42, %21
  store i32 %45, ptr %16, align 8, !tbaa !70
  %46 = add nuw nsw i32 %.09, 1
  %exitcond.not = icmp eq i32 %46, %13
  br i1 %exitcond.not, label %.critedge, label %22, !llvm.loop !102

.critedge:                                        ; preds = %44, %refill.exit.i, %1
  %.0.lcssa = phi i32 [ 0, %1 ], [ %.09, %refill.exit.i ], [ %13, %44 ]
  ret i32 %.0.lcssa
}